(lp0
(iseeds
Committee
p1
(dp2
S'password'
p3
S'a'
p4
sS'name'
p5
S'Community Service'
p6
sba(iseeds
Committee
p7
(dp8
g3
g4
sg5
S'Consulting'
p9
sba(iseeds
Committee
p10
(dp11
g3
g4
sg5
S'Finance'
p12
sba(iseeds
Committee
p13
(dp14
g3
g4
sg5
S'Marketing'
p15
sba(iseeds
Committee
p16
(dp17
g3
g4
sg5
S'Historian'
p18
sba(iseeds
Committee
p19
(dp20
g3
g4
sg5
S'Publications'
p21
sba(iseeds
Committee
p22
(dp23
g3
g4
sg5
S'Professional Development'
p24
sba(iseeds
Committee
p25
(dp26
g3
g4
sg5
S'Social'
p27
sba(iseeds
Committee
p28
(dp29
g3
g4
sg5
S'Internal Networking'
p30
sba(iseeds
Committee
p31
(dp32
g3
g4
sg5
S'Web Development'
p33
sba.